target datalayout = "e-m:e-p270:32:32-p271:32:32-p272:64:64-i64:64-i128:128-f80:128-n8:16:32:64-S128"
target triple = "x86_64-unknown-linux-gnu"

; Function Attrs: mustprogress nounwind uwtable
define internal noundef signext i8 @_ZL9U_FAILURE10UErrorCode(i32 noundef %code) #0 {
entry:
  %code.addr = alloca i32, align 4
  store i32 %code, ptr %code.addr, align 4
  %0 = load i32, ptr %code.addr, align 4
  %cmp = icmp sgt i32 %0, 0
  %conv = zext i1 %cmp to i8
  ret i8 %conv
}

; Function Attrs: mustprogress uwtable
define noundef i32 @_ZNK6icu_7517RuleBasedCollator19internalCompareUTF8EPKciS2_iR10UErrorCode(ptr noundef nonnull align 8 dereferenceable(272) %this, ptr noundef %left, i32 noundef %leftLength, ptr noundef %right, i32 noundef %rightLength, ptr noundef nonnull align 4 dereferenceable(4) %errorCode) unnamed_addr #1 align 2 {
entry:
  %retval = alloca i32, align 4
  %this.addr = alloca ptr, align 8
  %left.addr = alloca ptr, align 8
  %leftLength.addr = alloca i32, align 4
  %right.addr = alloca ptr, align 8
  %rightLength.addr = alloca i32, align 4
  %errorCode.addr = alloca ptr, align 8
  store ptr %this, ptr %this.addr, align 8
  store ptr %left, ptr %left.addr, align 8
  store i32 %leftLength, ptr %leftLength.addr, align 4
  store ptr %right, ptr %right.addr, align 8
  store i32 %rightLength, ptr %rightLength.addr, align 4
  store ptr %errorCode, ptr %errorCode.addr, align 8
  %this1 = load ptr, ptr %this.addr, align 8
  %0 = load ptr, ptr %errorCode.addr, align 8
  %1 = load i32, ptr %0, align 4
  %call = call noundef signext i8 @_ZL9U_FAILURE10UErrorCode(i32 noundef %1)
  %tobool = icmp ne i8 %call, 0
  br i1 %tobool, label %if.then, label %if.end

if.then:                                          ; preds = %entry
  store i32 0, ptr %retval, align 4
  br label %return

if.end:                                           ; preds = %entry
  %2 = load ptr, ptr %left.addr, align 8
  %cmp = icmp eq ptr %2, null
  br i1 %cmp, label %land.lhs.true, label %lor.lhs.false

land.lhs.true:                                    ; preds = %if.end
  %3 = load i32, ptr %leftLength.addr, align 4
  %cmp2 = icmp ne i32 %3, 0
  br i1 %cmp2, label %if.then6, label %lor.lhs.false

lor.lhs.false:                                    ; preds = %land.lhs.true, %if.end
  %4 = load ptr, ptr %right.addr, align 8
  %cmp3 = icmp eq ptr %4, null
  br i1 %cmp3, label %land.lhs.true4, label %if.end7

land.lhs.true4:                                   ; preds = %lor.lhs.false
  %5 = load i32, ptr %rightLength.addr, align 4
  %cmp5 = icmp ne i32 %5, 0
  br i1 %cmp5, label %if.then6, label %if.end7

if.then6:                                         ; preds = %land.lhs.true4, %land.lhs.true
  %6 = load ptr, ptr %errorCode.addr, align 8
  store i32 1, ptr %6, align 4
  store i32 0, ptr %retval, align 4
  br label %return

if.end7:                                          ; preds = %land.lhs.true4, %lor.lhs.false
  %7 = load i32, ptr %leftLength.addr, align 4
  %cmp8 = icmp sge i32 %7, 0
  br i1 %cmp8, label %if.then9, label %if.else

if.then9:                                         ; preds = %if.end7
  %8 = load i32, ptr %rightLength.addr, align 4
  %cmp10 = icmp slt i32 %8, 0
  br i1 %cmp10, label %if.then11, label %if.end13

if.then11:                                        ; preds = %if.then9
  %9 = load ptr, ptr %right.addr, align 8
  %call12 = call i64 @strlen(ptr noundef %9) #13
  %conv = trunc i64 %call12 to i32
  store i32 %conv, ptr %rightLength.addr, align 4
  br label %if.end13

if.end13:                                         ; preds = %if.then11, %if.then9
  br label %if.end19

if.else:                                          ; preds = %if.end7
  %10 = load i32, ptr %rightLength.addr, align 4
  %cmp14 = icmp sge i32 %10, 0
  br i1 %cmp14, label %if.then15, label %if.end18

if.then15:                                        ; preds = %if.else
  %11 = load ptr, ptr %left.addr, align 8
  %call16 = call i64 @strlen(ptr noundef %11) #13
  %conv17 = trunc i64 %call16 to i32
  store i32 %conv17, ptr %leftLength.addr, align 4
  br label %if.end18

if.end18:                                         ; preds = %if.then15, %if.else
  br label %if.end19

if.end19:                                         ; preds = %if.end18, %if.end13
  %12 = load ptr, ptr %left.addr, align 8
  %13 = load i32, ptr %leftLength.addr, align 4
  %14 = load ptr, ptr %right.addr, align 8
  %15 = load i32, ptr %rightLength.addr, align 4
  %16 = load ptr, ptr %errorCode.addr, align 8
  %call20 = call noundef i32 @_ZNK6icu_7517RuleBasedCollator9doCompareEPKhiS2_iR10UErrorCode(ptr noundef nonnull align 8 dereferenceable(272) %this1, ptr noundef %12, i32 noundef %13, ptr noundef %14, i32 noundef %15, ptr noundef nonnull align 4 dereferenceable(4) %16)
  store i32 %call20, ptr %retval, align 4
  br label %return

return:                                           ; preds = %if.end19, %if.then6, %if.then
  %17 = load i32, ptr %retval, align 4
  ret i32 %17
}