; Function Attrs: mustprogress uwtable
define noundef i32 @_ZNK6icu_7517RuleBasedCollator19internalCompareUTF8EPKciS2_iR10UErrorCode(ptr nocapture noundef nonnull readonly align 8 dereferenceable(272) %this, ptr noundef %left, i32 noundef %leftLength, ptr noundef %right, i32 noundef %rightLength, ptr noundef nonnull align 4 dereferenceable(4) %errorCode) unnamed_addr #1 align 2 {
entry:
  %0 = load i32, ptr %errorCode, align 4
  %cmp.i = icmp slt i32 %0, 1
  br i1 %cmp.i, label %if.end, label %return

if.end:                                           ; preds = %entry
  %cmp = icmp eq ptr %left, null
  %cmp2 = icmp ne i32 %leftLength, 0
  %or.cond = and i1 %cmp, %cmp2
  br i1 %or.cond, label %if.then6, label %lor.lhs.false

lor.lhs.false:                                    ; preds = %if.end
  %cmp3 = icmp eq ptr %right, null
  %cmp5 = icmp ne i32 %rightLength, 0
  %or.cond1 = and i1 %cmp3, %cmp5
  br i1 %or.cond1, label %if.then6, label %if.end7

if.then6:                                         ; preds = %lor.lhs.false, %if.end
  store i32 1, ptr %errorCode, align 4
  br label %return

if.end7:                                          ; preds = %lor.lhs.false
  %cmp8 = icmp sgt i32 %leftLength, -1
  br i1 %cmp8, label %if.then9, label %if.else

if.then9:                                         ; preds = %if.end7
  %cmp10 = icmp slt i32 %rightLength, 0
  br i1 %cmp10, label %if.then11, label %if.end19

if.then11:                                        ; preds = %if.then9
  %call12 = tail call i64 @strlen(ptr noundef nonnull dereferenceable(1) %right) #20
  %conv = trunc i64 %call12 to i32
  br label %if.end19

if.else:                                          ; preds = %if.end7
  %cmp14 = icmp sgt i32 %rightLength, -1
  br i1 %cmp14, label %if.then15, label %if.end19

if.then15:                                        ; preds = %if.else
  %call16 = tail call i64 @strlen(ptr noundef nonnull dereferenceable(1) %left) #20
  %conv17 = trunc i64 %call16 to i32
  br label %if.end19

if.end19:                                         ; preds = %if.else, %if.then15, %if.then9, %if.then11
  %leftLength.addr.0 = phi i32 [ %leftLength, %if.then11 ], [ %leftLength, %if.then9 ], [ %conv17, %if.then15 ], [ %leftLength, %if.else ]
  %rightLength.addr.0 = phi i32 [ %conv, %if.then11 ], [ %rightLength, %if.then9 ], [ %rightLength, %if.then15 ], [ %rightLength, %if.else ]
  %call20 = tail call noundef i32 @_ZNK6icu_7517RuleBasedCollator9doCompareEPKhiS2_iR10UErrorCode(ptr noundef nonnull align 8 dereferenceable(272) %this, ptr noundef %left, i32 noundef %leftLength.addr.0, ptr noundef %right, i32 noundef %rightLength.addr.0, ptr noundef nonnull align 4 dereferenceable(4) %errorCode)
  br label %return

return:                                           ; preds = %entry, %if.end19, %if.then6
  %retval.0 = phi i32 [ 0, %if.then6 ], [ %call20, %if.end19 ], [ 0, %entry ]
  ret i32 %retval.0
}